target datalayout = "e-m:e-p270:32:32-p271:32:32-p272:64:64-i64:64-i128:128-f80:128-n8:16:32:64-S128"
target triple = "x86_64-pc-linux-gnu"

%struct.t_methoddata_compare = type { ptr, i32, %struct.t_compare_value, %struct.t_compare_value }
%struct.t_compare_value = type { i32, ptr, ptr }

@.str.21 = private unnamed_addr constant [3 x i8] c" \22\00", align 1
@.str.22 = private unnamed_addr constant [4 x i8] c"%f \00", align 1
@.str.23 = private unnamed_addr constant [4 x i8] c"%d \00", align 1
@.str.24 = private unnamed_addr constant [3 x i8] c"%s\00", align 1
@.str.25 = private unnamed_addr constant [4 x i8] c" %f\00", align 1
@.str.26 = private unnamed_addr constant [4 x i8] c" %d\00", align 1
@.str.27 = private unnamed_addr constant [2 x i8] c"\22\00", align 1
@.str.28 = private unnamed_addr constant [8 x i8] c"INVALID\00", align 1
@.str.29 = private unnamed_addr constant [2 x i8] c"<\00", align 1
@.str.30 = private unnamed_addr constant [3 x i8] c"<=\00", align 1
@.str.31 = private unnamed_addr constant [2 x i8] c">\00", align 1
@.str.32 = private unnamed_addr constant [3 x i8] c">=\00", align 1
@.str.33 = private unnamed_addr constant [3 x i8] c"==\00", align 1
@.str.34 = private unnamed_addr constant [3 x i8] c"!=\00", align 1

; Function Attrs: mustprogress nounwind uwtable
define internal noundef ptr @_ZL19comparison_type_str14e_comparison_t(i32 noundef %0) #4 {
  %2 = alloca i32, align 4
  %3 = alloca ptr, align 8
  store i32 %0, ptr %2, align 4, !tbaa !68
  call void @llvm.lifetime.start.p0(i64 8, ptr %3) #17
  store ptr null, ptr %3, align 8, !tbaa !35
  %4 = load i32, ptr %2, align 4, !tbaa !68
  switch i32 %4, label %12 [
    i32 0, label %5
    i32 1, label %6
    i32 2, label %7
    i32 3, label %8
    i32 4, label %9
    i32 5, label %10
    i32 6, label %11
  ]

5:                                                ; preds = %1
  store ptr @.str.28, ptr %3, align 8, !tbaa !35
  br label %12

6:                                                ; preds = %1
  store ptr @.str.29, ptr %3, align 8, !tbaa !35
  br label %12

7:                                                ; preds = %1
  store ptr @.str.30, ptr %3, align 8, !tbaa !35
  br label %12

8:                                                ; preds = %1
  store ptr @.str.31, ptr %3, align 8, !tbaa !35
  br label %12

9:                                                ; preds = %1
  store ptr @.str.32, ptr %3, align 8, !tbaa !35
  br label %12

10:                                               ; preds = %1
  store ptr @.str.33, ptr %3, align 8, !tbaa !35
  br label %12

11:                                               ; preds = %1
  store ptr @.str.34, ptr %3, align 8, !tbaa !35
  br label %12

12:                                               ; preds = %1, %11, %10, %9, %8, %7, %6, %5
  %13 = load ptr, ptr %3, align 8, !tbaa !35
  call void @llvm.lifetime.end.p0(i64 8, ptr %3) #17
  ret ptr %13
}

; Function Attrs: mustprogress uwtable
define void @_Z31_gmx_selelem_print_compare_infoP8_IO_FILEPv(ptr noundef %0, ptr noundef %1) #0 {
  %3 = alloca ptr, align 8
  %4 = alloca ptr, align 8
  %5 = alloca ptr, align 8
  store ptr %0, ptr %3, align 8, !tbaa !182
  store ptr %1, ptr %4, align 8, !tbaa !11
  call void @llvm.lifetime.start.p0(i64 8, ptr %5) #17
  %6 = load ptr, ptr %4, align 8, !tbaa !11
  store ptr %6, ptr %5, align 8, !tbaa !11
  %7 = load ptr, ptr %3, align 8, !tbaa !182
  %8 = call i32 (ptr, ptr, ...) @fprintf(ptr noundef %7, ptr noundef @.str.21) #17
  %9 = load ptr, ptr %5, align 8, !tbaa !11
  %10 = getelementptr inbounds nuw %struct.t_methoddata_compare, ptr %9, i32 0, i32 2
  %11 = getelementptr inbounds nuw %struct.t_compare_value, ptr %10, i32 0, i32 0
  %12 = load i32, ptr %11, align 8, !tbaa !23
  %13 = and i32 %12, 1
  %14 = icmp ne i32 %13, 0
  br i1 %14, label %15, label %49

15:                                               ; preds = %2
  %16 = load ptr, ptr %5, align 8, !tbaa !11
  %17 = getelementptr inbounds nuw %struct.t_methoddata_compare, ptr %16, i32 0, i32 2
  %18 = getelementptr inbounds nuw %struct.t_compare_value, ptr %17, i32 0, i32 0
  %19 = load i32, ptr %18, align 8, !tbaa !23
  %20 = and i32 %19, 2
  %21 = icmp ne i32 %20, 0
  br i1 %21, label %49, label %22

22:                                               ; preds = %15
  %23 = load ptr, ptr %5, align 8, !tbaa !11
  %24 = getelementptr inbounds nuw %struct.t_methoddata_compare, ptr %23, i32 0, i32 2
  %25 = getelementptr inbounds nuw %struct.t_compare_value, ptr %24, i32 0, i32 0
  %26 = load i32, ptr %25, align 8, !tbaa !23
  %27 = and i32 %26, 4
  %28 = icmp ne i32 %27, 0
  br i1 %28, label %29, label %39

29:                                               ; preds = %22
  %30 = load ptr, ptr %3, align 8, !tbaa !182
  %31 = load ptr, ptr %5, align 8, !tbaa !11
  %32 = getelementptr inbounds nuw %struct.t_methoddata_compare, ptr %31, i32 0, i32 2
  %33 = getelementptr inbounds nuw %struct.t_compare_value, ptr %32, i32 0, i32 2
  %34 = load ptr, ptr %33, align 8, !tbaa !26
  %35 = getelementptr inbounds float, ptr %34, i64 0
  %36 = load float, ptr %35, align 4, !tbaa !64
  %37 = fpext float %36 to double
  %38 = call i32 (ptr, ptr, ...) @fprintf(ptr noundef %30, ptr noundef @.str.22, double noundef %37) #17
  br label %48

39:                                               ; preds = %22
  %40 = load ptr, ptr %3, align 8, !tbaa !182
  %41 = load ptr, ptr %5, align 8, !tbaa !11
  %42 = getelementptr inbounds nuw %struct.t_methoddata_compare, ptr %41, i32 0, i32 2
  %43 = getelementptr inbounds nuw %struct.t_compare_value, ptr %42, i32 0, i32 1
  %44 = load ptr, ptr %43, align 8, !tbaa !27
  %45 = getelementptr inbounds i32, ptr %44, i64 0
  %46 = load i32, ptr %45, align 4, !tbaa !4
  %47 = call i32 (ptr, ptr, ...) @fprintf(ptr noundef %40, ptr noundef @.str.23, i32 noundef %46) #17
  br label %48

48:                                               ; preds = %39, %29
  br label %49

49:                                               ; preds = %48, %15, %2
  %50 = load ptr, ptr %5, align 8, !tbaa !11
  %51 = getelementptr inbounds nuw %struct.t_methoddata_compare, ptr %50, i32 0, i32 1
  %52 = load i32, ptr %51, align 8, !tbaa !22
  %53 = icmp ne i32 %52, 0
  br i1 %53, label %54, label %61

54:                                               ; preds = %49
  %55 = load ptr, ptr %3, align 8, !tbaa !182
  %56 = load ptr, ptr %5, align 8, !tbaa !11
  %57 = getelementptr inbounds nuw %struct.t_methoddata_compare, ptr %56, i32 0, i32 1
  %58 = load i32, ptr %57, align 8, !tbaa !22
  %59 = call noundef ptr @_ZL19comparison_type_str14e_comparison_t(i32 noundef %58)
  %60 = call i32 (ptr, ptr, ...) @fprintf(ptr noundef %55, ptr noundef @.str.24, ptr noundef %59) #17
  br label %67

61:                                               ; preds = %49
  %62 = load ptr, ptr %3, align 8, !tbaa !182
  %63 = load ptr, ptr %5, align 8, !tbaa !11
  %64 = getelementptr inbounds nuw %struct.t_methoddata_compare, ptr %63, i32 0, i32 0
  %65 = load ptr, ptr %64, align 8, !tbaa !15
  %66 = call i32 (ptr, ptr, ...) @fprintf(ptr noundef %62, ptr noundef @.str.24, ptr noundef %65) #17
  br label %67

67:                                               ; preds = %61, %54
  %68 = load ptr, ptr %5, align 8, !tbaa !11
  %69 = getelementptr inbounds nuw %struct.t_methoddata_compare, ptr %68, i32 0, i32 3
  %70 = getelementptr inbounds nuw %struct.t_compare_value, ptr %69, i32 0, i32 0
  %71 = load i32, ptr %70, align 8, !tbaa !24
  %72 = and i32 %71, 1
  %73 = icmp ne i32 %72, 0
  br i1 %73, label %74, label %108

74:                                               ; preds = %67
  %75 = load ptr, ptr %5, align 8, !tbaa !11
  %76 = getelementptr inbounds nuw %struct.t_methoddata_compare, ptr %75, i32 0, i32 3
  %77 = getelementptr inbounds nuw %struct.t_compare_value, ptr %76, i32 0, i32 0
  %78 = load i32, ptr %77, align 8, !tbaa !24
  %79 = and i32 %78, 2
  %80 = icmp ne i32 %79, 0
  br i1 %80, label %108, label %81

81:                                               ; preds = %74
  %82 = load ptr, ptr %5, align 8, !tbaa !11
  %83 = getelementptr inbounds nuw %struct.t_methoddata_compare, ptr %82, i32 0, i32 3
  %84 = getelementptr inbounds nuw %struct.t_compare_value, ptr %83, i32 0, i32 0
  %85 = load i32, ptr %84, align 8, !tbaa !24
  %86 = and i32 %85, 4
  %87 = icmp ne i32 %86, 0
  br i1 %87, label %88, label %98

88:                                               ; preds = %81
  %89 = load ptr, ptr %3, align 8, !tbaa !182
  %90 = load ptr, ptr %5, align 8, !tbaa !11
  %91 = getelementptr inbounds nuw %struct.t_methoddata_compare, ptr %90, i32 0, i32 3
  %92 = getelementptr inbounds nuw %struct.t_compare_value, ptr %91, i32 0, i32 2
  %93 = load ptr, ptr %92, align 8, !tbaa !25
  %94 = getelementptr inbounds float, ptr %93, i64 0
  %95 = load float, ptr %94, align 4, !tbaa !64
  %96 = fpext float %95 to double
  %97 = call i32 (ptr, ptr, ...) @fprintf(ptr noundef %89, ptr noundef @.str.25, double noundef %96) #17
  br label %107

98:                                               ; preds = %81
  %99 = load ptr, ptr %3, align 8, !tbaa !182
  %100 = load ptr, ptr %5, align 8, !tbaa !11
  %101 = getelementptr inbounds nuw %struct.t_methoddata_compare, ptr %100, i32 0, i32 3
  %102 = getelementptr inbounds nuw %struct.t_compare_value, ptr %101, i32 0, i32 1
  %103 = load ptr, ptr %102, align 8, !tbaa !28
  %104 = getelementptr inbounds i32, ptr %103, i64 0
  %105 = load i32, ptr %104, align 4, !tbaa !4
  %106 = call i32 (ptr, ptr, ...) @fprintf(ptr noundef %99, ptr noundef @.str.26, i32 noundef %105) #17
  br label %107

107:                                              ; preds = %98, %88
  br label %108

108:                                              ; preds = %107, %74, %67
  %109 = load ptr, ptr %3, align 8, !tbaa !182
  %110 = call i32 (ptr, ptr, ...) @fprintf(ptr noundef %109, ptr noundef @.str.27) #17
  call void @llvm.lifetime.end.p0(i64 8, ptr %5) #17
  ret void
}