; Function Attrs: mustprogress nofree nounwind uwtable
define void @_Z31_gmx_selelem_print_compare_infoP8_IO_FILEPv(ptr noundef captures(none) %0, ptr noundef readonly captures(none) %1) local_unnamed_addr #15 {
  %3 = tail call i64 @fwrite(ptr nonnull @.str.21, i64 2, i64 1, ptr %0)
  %4 = getelementptr inbounds nuw i8, ptr %1, i64 16
  %5 = load i32, ptr %4, align 8, !tbaa !37
  %6 = and i32 %5, 3
  %or.cond = icmp eq i32 %6, 1
  br i1 %or.cond, label %7, label %20

7:                                                ; preds = %2
  %8 = and i32 %5, 4
  %.not23 = icmp eq i32 %8, 0
  br i1 %.not23, label %15, label %9

9:                                                ; preds = %7
  %10 = getelementptr inbounds nuw i8, ptr %1, i64 32
  %11 = load ptr, ptr %10, align 8, !tbaa !34
  %12 = load float, ptr %11, align 4, !tbaa !29
  %13 = fpext float %12 to double
  %14 = tail call i32 (ptr, ptr, ...) @fprintf(ptr noundef %0, ptr noundef nonnull @.str.22, double noundef %13) #20
  br label %20

15:                                               ; preds = %7
  %16 = getelementptr inbounds nuw i8, ptr %1, i64 24
  %17 = load ptr, ptr %16, align 8, !tbaa !35
  %18 = load i32, ptr %17, align 4, !tbaa !28
  %19 = tail call i32 (ptr, ptr, ...) @fprintf(ptr noundef %0, ptr noundef nonnull @.str.23, i32 noundef %18) #20
  br label %20

20:                                               ; preds = %9, %15, %2
  %21 = getelementptr inbounds nuw i8, ptr %1, i64 8
  %22 = load i32, ptr %21, align 8, !tbaa !24
  switch i32 %22, label %_ZL19comparison_type_str14e_comparison_t.exit [
    i32 0, label %29
    i32 6, label %28
    i32 1, label %23
    i32 2, label %24
    i32 3, label %25
    i32 4, label %26
    i32 5, label %27
  ]

23:                                               ; preds = %20
  br label %_ZL19comparison_type_str14e_comparison_t.exit

24:                                               ; preds = %20
  br label %_ZL19comparison_type_str14e_comparison_t.exit

25:                                               ; preds = %20
  br label %_ZL19comparison_type_str14e_comparison_t.exit

26:                                               ; preds = %20
  br label %_ZL19comparison_type_str14e_comparison_t.exit

27:                                               ; preds = %20
  br label %_ZL19comparison_type_str14e_comparison_t.exit

28:                                               ; preds = %20
  br label %_ZL19comparison_type_str14e_comparison_t.exit

29:                                               ; preds = %20
  %30 = load ptr, ptr %1, align 8, !tbaa !21
  br label %_ZL19comparison_type_str14e_comparison_t.exit

_ZL19comparison_type_str14e_comparison_t.exit:    ; preds = %28, %27, %26, %25, %24, %23, %20, %29
  %.sink = phi ptr [ %30, %29 ], [ @.str.34, %28 ], [ @.str.33, %27 ], [ @.str.32, %26 ], [ @.str.31, %25 ], [ @.str.30, %24 ], [ @.str.29, %23 ], [ null, %20 ]
  %fputs = tail call i32 @fputs(ptr %.sink, ptr %0)
  %31 = getelementptr inbounds nuw i8, ptr %1, i64 40
  %32 = load i32, ptr %31, align 8, !tbaa !38
  %33 = and i32 %32, 3
  %or.cond29 = icmp eq i32 %33, 1
  br i1 %or.cond29, label %34, label %47

34:                                               ; preds = %_ZL19comparison_type_str14e_comparison_t.exit
  %35 = and i32 %32, 4
  %.not28 = icmp eq i32 %35, 0
  br i1 %.not28, label %42, label %36

36:                                               ; preds = %34
  %37 = getelementptr inbounds nuw i8, ptr %1, i64 56
  %38 = load ptr, ptr %37, align 8, !tbaa !33
  %39 = load float, ptr %38, align 4, !tbaa !29
  %40 = fpext float %39 to double
  %41 = tail call i32 (ptr, ptr, ...) @fprintf(ptr noundef %0, ptr noundef nonnull @.str.25, double noundef %40) #20
  br label %47

42:                                               ; preds = %34
  %43 = getelementptr inbounds nuw i8, ptr %1, i64 48
  %44 = load ptr, ptr %43, align 8, !tbaa !36
  %45 = load i32, ptr %44, align 4, !tbaa !28
  %46 = tail call i32 (ptr, ptr, ...) @fprintf(ptr noundef %0, ptr noundef nonnull @.str.26, i32 noundef %45) #20
  br label %47

47:                                               ; preds = %36, %42, %_ZL19comparison_type_str14e_comparison_t.exit
  %fputc = tail call i32 @fputc(i32 34, ptr %0)
  ret void
}